target datalayout = "e-m:e-p270:32:32-p271:32:32-p272:64:64-i64:64-i128:128-f80:128-n8:16:32:64-S128"
target triple = "x86_64-pc-linux-gnu"

@.str.346 = private unnamed_addr constant [3 x i8] c"\0D\0A\00", align 1

; Function Attrs: nounwind uwtable
define internal ptr @pdf_nextlinestart(ptr noundef %0, i64 noundef %1) #0 {
  %3 = alloca ptr, align 8
  %4 = alloca ptr, align 8
  %5 = alloca i64, align 8
  store ptr %0, ptr %4, align 8
  store i64 %1, ptr %5, align 8
  %6 = load ptr, ptr %4, align 8
  %7 = icmp ne ptr %6, null
  br i1 %7, label %8, label %11

8:                                                ; preds = %2
  %9 = load i64, ptr %5, align 8
  %10 = icmp eq i64 0, %9
  br i1 %10, label %11, label %12

11:                                               ; preds = %8, %2
  store ptr null, ptr %3, align 8
  br label %44

12:                                               ; preds = %8
  br label %13

13:                                               ; preds = %24, %12
  %14 = load ptr, ptr %4, align 8
  %15 = load i8, ptr %14, align 1
  %16 = sext i8 %15 to i32
  %17 = call ptr @strchr(ptr noundef @.str.346, i32 noundef %16) #13
  %18 = icmp eq ptr %17, null
  br i1 %18, label %19, label %27

19:                                               ; preds = %13
  %20 = load i64, ptr %5, align 8
  %21 = add i64 %20, -1
  store i64 %21, ptr %5, align 8
  %22 = icmp eq i64 %21, 0
  br i1 %22, label %23, label %24

23:                                               ; preds = %19
  store ptr null, ptr %3, align 8
  br label %44

24:                                               ; preds = %19
  %25 = load ptr, ptr %4, align 8
  %26 = getelementptr inbounds i8, ptr %25, i32 1
  store ptr %26, ptr %4, align 8
  br label %13

27:                                               ; preds = %13
  br label %28

28:                                               ; preds = %39, %27
  %29 = load ptr, ptr %4, align 8
  %30 = load i8, ptr %29, align 1
  %31 = sext i8 %30 to i32
  %32 = call ptr @strchr(ptr noundef @.str.346, i32 noundef %31) #13
  %33 = icmp ne ptr %32, null
  br i1 %33, label %34, label %42

34:                                               ; preds = %28
  %35 = load i64, ptr %5, align 8
  %36 = add i64 %35, -1
  store i64 %36, ptr %5, align 8
  %37 = icmp eq i64 %36, 0
  br i1 %37, label %38, label %39

38:                                               ; preds = %34
  store ptr null, ptr %3, align 8
  br label %44

39:                                               ; preds = %34
  %40 = load ptr, ptr %4, align 8
  %41 = getelementptr inbounds i8, ptr %40, i32 1
  store ptr %41, ptr %4, align 8
  br label %28

42:                                               ; preds = %28
  %43 = load ptr, ptr %4, align 8
  store ptr %43, ptr %3, align 8
  br label %44

44:                                               ; preds = %42, %38, %23, %11
  %45 = load ptr, ptr %3, align 8
  ret ptr %45
}

; Function Attrs: nounwind uwtable
define internal ptr @pdf_nextobject(ptr noundef %0, i64 noundef %1) #0 {
  %3 = alloca ptr, align 8
  %4 = alloca ptr, align 8
  %5 = alloca i64, align 8
  %6 = alloca ptr, align 8
  %7 = alloca i32, align 4
  store ptr %0, ptr %4, align 8
  store i64 %1, ptr %5, align 8
  store i32 1, ptr %7, align 4
  br label %8

8:                                                ; preds = %50, %2
  %9 = load i64, ptr %5, align 8
  %10 = icmp ne i64 %9, 0
  br i1 %10, label %11, label %51

11:                                               ; preds = %8
  %12 = load ptr, ptr %4, align 8
  %13 = load i8, ptr %12, align 1
  %14 = sext i8 %13 to i32
  switch i32 %14, label %40 [
    i32 10, label %15
    i32 13, label %15
    i32 37, label %15
    i32 32, label %31
    i32 9, label %31
    i32 91, label %31
    i32 11, label %31
    i32 12, label %31
    i32 60, label %31
    i32 47, label %36
    i32 40, label %38
  ]

15:                                               ; preds = %11, %11, %11
  %16 = load ptr, ptr %4, align 8
  %17 = load i64, ptr %5, align 8
  %18 = call ptr @pdf_nextlinestart(ptr noundef %16, i64 noundef %17)
  store ptr %18, ptr %6, align 8
  %19 = load ptr, ptr %6, align 8
  %20 = icmp eq ptr %19, null
  br i1 %20, label %21, label %22

21:                                               ; preds = %15
  store ptr null, ptr %3, align 8
  br label %52

22:                                               ; preds = %15
  %23 = load ptr, ptr %6, align 8
  %24 = load ptr, ptr %4, align 8
  %25 = ptrtoint ptr %23 to i64
  %26 = ptrtoint ptr %24 to i64
  %27 = sub i64 %25, %26
  %28 = load i64, ptr %5, align 8
  %29 = sub i64 %28, %27
  store i64 %29, ptr %5, align 8
  %30 = load ptr, ptr %6, align 8
  store ptr %30, ptr %4, align 8
  store i32 0, ptr %7, align 4
  br label %50

31:                                               ; preds = %11, %11, %11, %11, %11, %11
  store i32 0, ptr %7, align 4
  %32 = load ptr, ptr %4, align 8
  %33 = getelementptr inbounds i8, ptr %32, i32 1
  store ptr %33, ptr %4, align 8
  %34 = load i64, ptr %5, align 8
  %35 = add i64 %34, -1
  store i64 %35, ptr %5, align 8
  br label %50

36:                                               ; preds = %11
  %37 = load ptr, ptr %4, align 8
  store ptr %37, ptr %3, align 8
  br label %52

38:                                               ; preds = %11
  %39 = load ptr, ptr %4, align 8
  store ptr %39, ptr %3, align 8
  br label %52

40:                                               ; preds = %11
  %41 = load i32, ptr %7, align 4
  %42 = icmp ne i32 %41, 0
  br i1 %42, label %45, label %43

43:                                               ; preds = %40
  %44 = load ptr, ptr %4, align 8
  store ptr %44, ptr %3, align 8
  br label %52

45:                                               ; preds = %40
  %46 = load ptr, ptr %4, align 8
  %47 = getelementptr inbounds i8, ptr %46, i32 1
  store ptr %47, ptr %4, align 8
  %48 = load i64, ptr %5, align 8
  %49 = add i64 %48, -1
  store i64 %49, ptr %5, align 8
  br label %50

50:                                               ; preds = %45, %31, %22
  br label %8

51:                                               ; preds = %8
  store ptr null, ptr %3, align 8
  br label %52

52:                                               ; preds = %51, %43, %38, %36, %21
  %53 = load ptr, ptr %3, align 8
  ret ptr %53
}