; Function Attrs: nofree norecurse nosync nounwind memory(read, inaccessiblemem: none) uwtable
define internal fastcc noundef ptr @pdf_nextobject(ptr noundef %0, i64 noundef %1) unnamed_addr #8 {
  %.not30 = icmp eq i64 %1, 0
  br i1 %.not30, label %pdf_nextlinestart.exit.thread, label %.lr.ph

.lr.ph:                                           ; preds = %2, %33
  %.033 = phi i32 [ %.1, %33 ], [ 1, %2 ]
  %.01832 = phi i64 [ %.119, %33 ], [ %1, %2 ]
  %.02031 = phi ptr [ %.121, %33 ], [ %0, %2 ]
  %3 = load i8, ptr %.02031, align 1
  switch i8 %3, label %29 [
    i8 10, label %.preheader21.i
    i8 13, label %.preheader21.i
    i8 37, label %.preheader21.i
    i8 32, label %26
    i8 9, label %26
    i8 91, label %26
    i8 11, label %26
    i8 12, label %26
    i8 60, label %26
    i8 47, label %pdf_nextlinestart.exit.thread
    i8 40, label %pdf_nextlinestart.exit.thread
  ]

.preheader21.i:                                   ; preds = %.lr.ph, %.lr.ph, %.lr.ph
  %4 = zext nneg i8 %3 to i16
  %memchr.bounds25.i = icmp ugt i8 %3, 15
  %5 = shl nuw i16 1, %4
  %6 = and i16 %5, 9217
  %memchr.bits26.i = icmp eq i16 %6, 0
  %memchr17.not27.i = select i1 %memchr.bounds25.i, i1 true, i1 %memchr.bits26.i
  br i1 %memchr17.not27.i, label %.lr.ph.i, label %.lr.ph36.i.preheader

.lr.ph.i:                                         ; preds = %.preheader21.i, %9
  %.029.i = phi i64 [ %7, %9 ], [ %.01832, %.preheader21.i ]
  %.01028.i = phi ptr [ %10, %9 ], [ %.02031, %.preheader21.i ]
  %7 = add i64 %.029.i, -1
  %8 = icmp eq i64 %7, 0
  br i1 %8, label %pdf_nextlinestart.exit.thread, label %9

9:                                                ; preds = %.lr.ph.i
  %10 = getelementptr inbounds i8, ptr %.01028.i, i64 1
  %11 = load i8, ptr %10, align 1
  %12 = zext nneg i8 %11 to i16
  %memchr.bounds.i = icmp ugt i8 %11, 15
  %13 = shl nuw i16 1, %12
  %14 = and i16 %13, 9217
  %memchr.bits.i = icmp eq i16 %14, 0
  %memchr17.not.i = select i1 %memchr.bounds.i, i1 true, i1 %memchr.bits.i
  br i1 %memchr17.not.i, label %.lr.ph.i, label %.lr.ph36.i.preheader

.lr.ph36.i.preheader:                             ; preds = %9, %.preheader21.i
  %.135.i.ph = phi i64 [ %.01832, %.preheader21.i ], [ %7, %9 ]
  %.11134.i.ph = phi ptr [ %.02031, %.preheader21.i ], [ %10, %9 ]
  br label %.lr.ph36.i

.lr.ph36.i:                                       ; preds = %.lr.ph36.i.preheader, %17
  %.135.i = phi i64 [ %15, %17 ], [ %.135.i.ph, %.lr.ph36.i.preheader ]
  %.11134.i = phi ptr [ %18, %17 ], [ %.11134.i.ph, %.lr.ph36.i.preheader ]
  %15 = add i64 %.135.i, -1
  %16 = icmp eq i64 %15, 0
  br i1 %16, label %pdf_nextlinestart.exit.thread, label %17

17:                                               ; preds = %.lr.ph36.i
  %18 = getelementptr inbounds i8, ptr %.11134.i, i64 1
  %19 = load i8, ptr %18, align 1
  %20 = zext nneg i8 %19 to i16
  %memchr.bounds18.i = icmp ugt i8 %19, 15
  %21 = shl nuw i16 1, %20
  %22 = and i16 %21, 9217
  %memchr.bits19.i = icmp eq i16 %22, 0
  %memchr20.not.i = select i1 %memchr.bounds18.i, i1 true, i1 %memchr.bits19.i
  br i1 %memchr20.not.i, label %pdf_nextlinestart.exit, label %.lr.ph36.i

pdf_nextlinestart.exit:                           ; preds = %17
  %23 = ptrtoint ptr %18 to i64
  %24 = ptrtoint ptr %.02031 to i64
  %.neg = add i64 %.01832, %24
  %25 = sub i64 %.neg, %23
  br label %33

26:                                               ; preds = %.lr.ph, %.lr.ph, %.lr.ph, %.lr.ph, %.lr.ph, %.lr.ph
  %27 = getelementptr inbounds i8, ptr %.02031, i64 1
  %28 = add i64 %.01832, -1
  br label %33

29:                                               ; preds = %.lr.ph
  %.not23 = icmp eq i32 %.033, 0
  br i1 %.not23, label %pdf_nextlinestart.exit.thread, label %30

30:                                               ; preds = %29
  %31 = getelementptr inbounds i8, ptr %.02031, i64 1
  %32 = add i64 %.01832, -1
  br label %33

33:                                               ; preds = %30, %26, %pdf_nextlinestart.exit
  %.121 = phi ptr [ %31, %30 ], [ %27, %26 ], [ %18, %pdf_nextlinestart.exit ]
  %.119 = phi i64 [ %32, %30 ], [ %28, %26 ], [ %25, %pdf_nextlinestart.exit ]
  %.1 = phi i32 [ 1, %30 ], [ 0, %26 ], [ 0, %pdf_nextlinestart.exit ]
  %.not = icmp eq i64 %.119, 0
  br i1 %.not, label %pdf_nextlinestart.exit.thread, label %.lr.ph

pdf_nextlinestart.exit.thread:                    ; preds = %.lr.ph, %.lr.ph, %29, %33, %.lr.ph.i, %.lr.ph36.i, %2
  %.017 = phi ptr [ null, %2 ], [ null, %.lr.ph36.i ], [ null, %.lr.ph.i ], [ %.02031, %.lr.ph ], [ %.02031, %.lr.ph ], [ %.02031, %29 ], [ null, %33 ]
  ret ptr %.017
}